; Function Attrs: mustprogress uwtable
define noundef double @_ZNK8QuantLib14NormalCLVModel3cdfERKNS_4DateEd(ptr nocapture noundef nonnull readonly align 8 dereferenceable(168) %this, ptr noundef nonnull align 8 dereferenceable(8) %d, double noundef %k) local_unnamed_addr #9 align 2 {
entry:
  %rndCalculator_ = getelementptr inbounds nuw i8, ptr %this, i64 96
  %0 = load ptr, ptr %rndCalculator_, align 8, !tbaa !100
  %cmp.not.i = icmp eq ptr %0, null
  br i1 %cmp.not.i, label %cond.false.i, label %_ZNK5boost10shared_ptrIN8QuantLib17GBSMRNDCalculatorEEptEv.exit, !prof !80

cond.false.i:                                     ; preds = %entry
  tail call void @_ZN5boost16assertion_failedEPKcS1_S1_l(ptr noundef nonnull @.str.17, ptr noundef nonnull @__PRETTY_FUNCTION__._ZNK5boost10shared_ptrIN8QuantLib17GBSMRNDCalculatorEEptEv, ptr noundef nonnull @.str.18, i64 noundef 784)
  %.pre.i = load ptr, ptr %rndCalculator_, align 8, !tbaa !100
  br label %_ZNK5boost10shared_ptrIN8QuantLib17GBSMRNDCalculatorEEptEv.exit

_ZNK5boost10shared_ptrIN8QuantLib17GBSMRNDCalculatorEEptEv.exit: ; preds = %entry, %cond.false.i
  %1 = phi ptr [ %0, %entry ], [ %.pre.i, %cond.false.i ]
  %bsProcess_ = getelementptr inbounds nuw i8, ptr %this, i64 40
  %2 = load ptr, ptr %bsProcess_, align 8, !tbaa !76
  %cmp.not.i1 = icmp eq ptr %2, null
  br i1 %cmp.not.i1, label %cond.false.i2, label %_ZNK5boost10shared_ptrIN8QuantLib30GeneralizedBlackScholesProcessEEptEv.exit, !prof !80

cond.false.i2:                                    ; preds = %_ZNK5boost10shared_ptrIN8QuantLib17GBSMRNDCalculatorEEptEv.exit
  tail call void @_ZN5boost16assertion_failedEPKcS1_S1_l(ptr noundef nonnull @.str.17, ptr noundef nonnull @__PRETTY_FUNCTION__._ZNK5boost10shared_ptrIN8QuantLib30GeneralizedBlackScholesProcessEEptEv, ptr noundef nonnull @.str.18, i64 noundef 784)
  %.pre.i3 = load ptr, ptr %bsProcess_, align 8, !tbaa !76
  br label %_ZNK5boost10shared_ptrIN8QuantLib30GeneralizedBlackScholesProcessEEptEv.exit

_ZNK5boost10shared_ptrIN8QuantLib30GeneralizedBlackScholesProcessEEptEv.exit: ; preds = %_ZNK5boost10shared_ptrIN8QuantLib17GBSMRNDCalculatorEEptEv.exit, %cond.false.i2
  %3 = phi ptr [ %2, %_ZNK5boost10shared_ptrIN8QuantLib17GBSMRNDCalculatorEEptEv.exit ], [ %.pre.i3, %cond.false.i2 ]
  %vtable = load ptr, ptr %3, align 8, !tbaa !33
  %vfn = getelementptr inbounds i8, ptr %vtable, i64 112
  %4 = load ptr, ptr %vfn, align 8
  %call3 = tail call noundef double %4(ptr noundef nonnull align 8 dereferenceable(250) %3, ptr noundef nonnull align 8 dereferenceable(8) %d)
  %vtable4 = load ptr, ptr %1, align 8, !tbaa !33
  %vfn5 = getelementptr inbounds i8, ptr %vtable4, i64 8
  %5 = load ptr, ptr %vfn5, align 8
  %call6 = tail call noundef double %5(ptr noundef nonnull align 8 dereferenceable(24) %1, double noundef %k, double noundef %call3)
  ret double %call6
}